0000000100004444 <__ZN1y3foo17h2a2fe656c7dc0127E>:
100004444: d65f03c0    	ret

0000000100004448 <__ZN1y3foo28_$u7b$$u7b$closure$u7d$$u7d$17h54096ff91efe5082E>:
100004448: d10083ff    	sub	sp, sp, #0x20
10000444c: a9017bfd    	stp	x29, x30, [sp, #0x10]
100004450: 910043fd    	add	x29, sp, #0x10
100004454: 31000428    	adds	w8, w1, #0x1
100004458: b81fc3a8    	stur	w8, [x29, #-0x4]
10000445c: 1a9f77e8    	cset	w8, vs
100004460: 370000c8    	tbnz	w8, #0x0, 0x100004478 <__ZN1y3foo28_$u7b$$u7b$closure$u7d$$u7d$17h54096ff91efe5082E+0x30>
100004464: 14000001    	b	0x100004468 <__ZN1y3foo28_$u7b$$u7b$closure$u7d$$u7d$17h54096ff91efe5082E+0x20>
100004468: b85fc3a0    	ldur	w0, [x29, #-0x4]
10000446c: a9417bfd    	ldp	x29, x30, [sp, #0x10]
100004470: 910083ff    	add	sp, sp, #0x20
100004474: d65f03c0    	ret
100004478: 90000220    	adrp	x0, 0x100048000 <dyld_stub_binder+0x100048000>
10000447c: 91010000    	add	x0, x0, #0x40
100004480: 9400d60e    	bl	0x100039cb8 <__ZN4core9panicking11panic_const24panic_const_add_overflow17h4122f6c414b7f456E>

0000000100004484 <__ZN1y3bar17h4babceb515b0d3a8E>:
100004484: d10243ff    	sub	sp, sp, #0x90
100004488: a9087bfd    	stp	x29, x30, [sp, #0x80]
10000448c: 910203fd    	add	x29, sp, #0x80
100004490: 52800141    	mov	w1, #0xa                ; =10
100004494: 97ffffed    	bl	0x100004448 <__ZN1y3foo28_$u7b$$u7b$closure$u7d$$u7d$17h54096ff91efe5082E>
100004498: d10053a8    	sub	x8, x29, #0x14
10000449c: b81ec3a0    	stur	w0, [x29, #-0x14]
1000044a0: f81f03a8    	stur	x8, [x29, #-0x10]
1000044a4: 900001a8    	adrp	x8, 0x100038000 <__ZN4core3fmt3num55_$LT$impl$u20$core..fmt..LowerHex$u20$for$u20$usize$GT$3fmt17h2d26a926705fe51fE+0x4>
1000044a8: 910e6108    	add	x8, x8, #0x398
1000044ac: f81f83a8    	stur	x8, [x29, #-0x8]
1000044b0: 3cdf03a0    	ldur	q0, [x29, #-0x10]
1000044b4: 3c9d03a0    	stur	q0, [x29, #-0x30]
1000044b8: 3cdd03a0    	ldur	q0, [x29, #-0x30]
1000044bc: 910103e1    	add	x1, sp, #0x40
1000044c0: 3d8013e0    	str	q0, [sp, #0x40]
1000044c4: 910043e8    	add	x8, sp, #0x10
1000044c8: f90007e8    	str	x8, [sp, #0x8]
1000044cc: 90000220    	adrp	x0, 0x100048000 <dyld_stub_binder+0x100048000>
1000044d0: 91016000    	add	x0, x0, #0x58
1000044d4: 97ffff8d    	bl	0x100004308 <__ZN4core3fmt9Arguments6new_v117hd53b7505194ba32eE>
1000044d8: f94007e0    	ldr	x0, [sp, #0x8]
1000044dc: 94006bfd    	bl	0x10001f4d0 <__ZN3std2io5stdio6_print17h2f3526c2a562a502E>
1000044e0: a9487bfd    	ldp	x29, x30, [sp, #0x80]
1000044e4: 910243ff    	add	sp, sp, #0x90
1000044e8: d65f03c0    	ret

00000001000044ec <__ZN1y3baz17h675339e5a80a3aaaE>:
1000044ec: d10243ff    	sub	sp, sp, #0x90
1000044f0: a9087bfd    	stp	x29, x30, [sp, #0x80]
1000044f4: 910203fd    	add	x29, sp, #0x80
1000044f8: f9401428    	ldr	x8, [x1, #0x28]
1000044fc: 52800141    	mov	w1, #0xa                ; =10
100004500: d63f0100    	blr	x8
100004504: d10053a8    	sub	x8, x29, #0x14
100004508: b81ec3a0    	stur	w0, [x29, #-0x14]
10000450c: f81f03a8    	stur	x8, [x29, #-0x10]
100004510: 900001a8    	adrp	x8, 0x100038000 <__ZN4core3fmt3num55_$LT$impl$u20$core..fmt..LowerHex$u20$for$u20$usize$GT$3fmt17h2d26a926705fe51fE+0x4>
100004514: 910e6108    	add	x8, x8, #0x398
100004518: f81f83a8    	stur	x8, [x29, #-0x8]
10000451c: 3cdf03a0    	ldur	q0, [x29, #-0x10]
100004520: 3c9d03a0    	stur	q0, [x29, #-0x30]
100004524: 3cdd03a0    	ldur	q0, [x29, #-0x30]
100004528: 910103e1    	add	x1, sp, #0x40
10000452c: 3d8013e0    	str	q0, [sp, #0x40]
100004530: 910043e8    	add	x8, sp, #0x10
100004534: f90007e8    	str	x8, [sp, #0x8]
100004538: 90000220    	adrp	x0, 0x100048000 <dyld_stub_binder+0x100048000>
10000453c: 9101e000    	add	x0, x0, #0x78
100004540: 97ffff72    	bl	0x100004308 <__ZN4core3fmt9Arguments6new_v117hd53b7505194ba32eE>
100004544: f94007e0    	ldr	x0, [sp, #0x8]
100004548: 94006be2    	bl	0x10001f4d0 <__ZN3std2io5stdio6_print17h2f3526c2a562a502E>
10000454c: a9487bfd    	ldp	x29, x30, [sp, #0x80]
100004550: 910243ff    	add	sp, sp, #0x90
100004554: d65f03c0    	ret

0000000100004558 <__ZN1y4main17h494d0ae32e6e94f6E>:
100004558: d10283ff    	sub	sp, sp, #0xa0
10000455c: a9097bfd    	stp	x29, x30, [sp, #0x90]
100004560: 910243fd    	add	x29, sp, #0x90
100004564: 97ffffb8    	bl	0x100004444 <__ZN1y3foo17h2a2fe656c7dc0127E>
100004568: 91007fe0    	add	x0, sp, #0x1f
10000456c: f9000be0    	str	x0, [sp, #0x10]
100004570: 52800141    	mov	w1, #0xa                ; =10
100004574: 97ffffb5    	bl	0x100004448 <__ZN1y3foo28_$u7b$$u7b$closure$u7d$$u7d$17h54096ff91efe5082E>
100004578: d10053a8    	sub	x8, x29, #0x14
10000457c: b81ec3a0    	stur	w0, [x29, #-0x14]
100004580: f81f03a8    	stur	x8, [x29, #-0x10]
100004584: 900001a8    	adrp	x8, 0x100038000 <__ZN4core3fmt3num55_$LT$impl$u20$core..fmt..LowerHex$u20$for$u20$usize$GT$3fmt17h2d26a926705fe51fE+0x4>
100004588: 910e6108    	add	x8, x8, #0x398
10000458c: f81f83a8    	stur	x8, [x29, #-0x8]
100004590: 3cdf03a0    	ldur	q0, [x29, #-0x10]
100004594: 3c9d03a0    	stur	q0, [x29, #-0x30]
100004598: 3cdd03a0    	ldur	q0, [x29, #-0x30]
10000459c: d10103a1    	sub	x1, x29, #0x40
1000045a0: 3c9c03a0    	stur	q0, [x29, #-0x40]
1000045a4: 910083e8    	add	x8, sp, #0x20
1000045a8: f90007e8    	str	x8, [sp, #0x8]
1000045ac: 90000220    	adrp	x0, 0x100048000 <dyld_stub_binder+0x100048000>
1000045b0: 91026000    	add	x0, x0, #0x98
1000045b4: 97ffff55    	bl	0x100004308 <__ZN4core3fmt9Arguments6new_v117hd53b7505194ba32eE>
1000045b8: f94007e0    	ldr	x0, [sp, #0x8]
1000045bc: 94006bc5    	bl	0x10001f4d0 <__ZN3std2io5stdio6_print17h2f3526c2a562a502E>
1000045c0: f9400be0    	ldr	x0, [sp, #0x10]
1000045c4: 97ffffb0    	bl	0x100004484 <__ZN1y3bar17h4babceb515b0d3a8E>
1000045c8: f9400be0    	ldr	x0, [sp, #0x10]
1000045cc: 90000221    	adrp	x1, 0x100048000 <dyld_stub_binder+0x100048000>
1000045d0: 9102e021    	add	x1, x1, #0xb8
1000045d4: 97ffffc6    	bl	0x1000044ec <__ZN1y3baz17h675339e5a80a3aaaE>
1000045d8: a9497bfd    	ldp	x29, x30, [sp, #0x90]
1000045dc: 910283ff    	add	sp, sp, #0xa0
1000045e0: d65f03c0    	ret

00000001000045e4 <_main>:
1000045e4: a9bf7bfd    	stp	x29, x30, [sp, #-0x10]!
1000045e8: 910003fd    	mov	x29, sp
1000045ec: aa0103e2    	mov	x2, x1
1000045f0: aa0003e8    	mov	x8, x0
1000045f4: 93407d01    	sxtw	x1, w8
1000045f8: 90000000    	adrp	x0, 0x100004000 <dyld_stub_binder+0x100004000>
1000045fc: 91156000    	add	x0, x0, #0x558
100004600: 52800003    	mov	w3, #0x0                ; =0
100004604: 97ffff1d    	bl	0x100004278 <__ZN3std2rt10lang_start17h2759cb4a035b4e8aE>
100004608: a8c17bfd    	ldp	x29, x30, [sp], #0x10
10000460c: d65f03c0    	ret

